target datalayout = "e-m:e-p270:32:32-p271:32:32-p272:64:64-i64:64-i128:128-f80:128-n8:16:32:64-S128"
target triple = "x86_64-pc-linux-gnu"

@stderr = external global ptr, align 8
@.str.13 = private unnamed_addr constant [54 x i8] c"libunwind: __unw_iterate_dwarf_unwind_cache(func=%p)\0A\00", align 1
@_ZZ7logAPIsE7checked = internal global i8 0, align 1
@_ZZ7logAPIsE3log = internal global i8 0, align 1
@.str.15 = private unnamed_addr constant [21 x i8] c"LIBUNWIND_PRINT_APIS\00", align 1

; Function Attrs: mustprogress nounwind uwtable
define hidden zeroext i1 @logAPIs() #0 {
  %1 = load i8, ptr @_ZZ7logAPIsE7checked, align 1, !tbaa !19, !range !21, !noundef !22
  %2 = trunc i8 %1 to i1
  br i1 %2, label %7, label %3

3:                                                ; preds = %0
  %4 = call ptr @getenv(ptr noundef @.str.15) #9
  %5 = icmp ne ptr %4, null
  %6 = zext i1 %5 to i8
  store i8 %6, ptr @_ZZ7logAPIsE3log, align 1, !tbaa !19
  store i8 1, ptr @_ZZ7logAPIsE7checked, align 1, !tbaa !19
  br label %7

7:                                                ; preds = %3, %0
  %8 = load i8, ptr @_ZZ7logAPIsE3log, align 1, !tbaa !19, !range !21, !noundef !22
  %9 = trunc i8 %8 to i1
  ret i1 %9
}

; Function Attrs: mustprogress nounwind uwtable
define hidden void @__unw_iterate_dwarf_unwind_cache(ptr noundef %0) #0 {
  %2 = alloca ptr, align 8
  store ptr %0, ptr %2, align 8, !tbaa !50
  br label %3

3:                                                ; preds = %1
  %4 = call zeroext i1 @logAPIs()
  br i1 %4, label %5, label %13

5:                                                ; preds = %3
  br label %6

6:                                                ; preds = %5
  %7 = load ptr, ptr @stderr, align 8, !tbaa !13
  %8 = load ptr, ptr %2, align 8, !tbaa !50
  %9 = call i32 (ptr, ptr, ...) @fprintf(ptr noundef %7, ptr noundef @.str.13, ptr noundef %8) #9
  %10 = load ptr, ptr @stderr, align 8, !tbaa !13
  %11 = call i32 @fflush(ptr noundef %10)
  br label %12

12:                                               ; preds = %6
  br label %13

13:                                               ; preds = %12, %3
  br label %14

14:                                               ; preds = %13
  %15 = load ptr, ptr %2, align 8, !tbaa !50
  call void @_ZN9libunwind13DwarfFDECacheINS_17LocalAddressSpaceEE19iterateCacheEntriesEPFvmmmmE(ptr noundef %15)
  ret void
}